target datalayout = "e-m:e-p270:32:32-p271:32:32-p272:64:64-i64:64-i128:128-f80:128-n8:16:32:64-S128"
target triple = "x86_64-unknown-linux-gnu"

%struct.QEnumLookup = type { ptr, ptr, i32 }
%struct.q_obj_BlockJobInfo_base = type { i32, ptr, i64, i64, i8, i8, i64, i32, i8, i32, i8, i8, ptr }

@.str.32 = private unnamed_addr constant [5 x i8] c"type\00", align 1
@.str.59 = private unnamed_addr constant [7 x i8] c"offset\00", align 1
@BlockDeviceIoStatus_lookup = external constant %struct.QEnumLookup, align 8
@.str.97 = private unnamed_addr constant [5 x i8] c"busy\00", align 1
@.str.103 = private unnamed_addr constant [7 x i8] c"device\00", align 1
@.str.109 = private unnamed_addr constant [10 x i8] c"io-status\00", align 1
@.str.178 = private unnamed_addr constant [4 x i8] c"len\00", align 1
@.str.179 = private unnamed_addr constant [7 x i8] c"paused\00", align 1
@.str.180 = private unnamed_addr constant [6 x i8] c"speed\00", align 1
@.str.181 = private unnamed_addr constant [6 x i8] c"ready\00", align 1
@.str.182 = private unnamed_addr constant [7 x i8] c"status\00", align 1
@.str.183 = private unnamed_addr constant [14 x i8] c"auto-finalize\00", align 1
@.str.184 = private unnamed_addr constant [13 x i8] c"auto-dismiss\00", align 1
@.str.185 = private unnamed_addr constant [6 x i8] c"error\00", align 1

; Function Attrs: nounwind sspstrong uwtable
define dso_local zeroext i1 @visit_type_BlockDeviceIoStatus(ptr noundef %v, ptr noundef %name, ptr noundef %obj, ptr noundef %errp) #0 {
entry:
  %v.addr = alloca ptr, align 8
  %name.addr = alloca ptr, align 8
  %obj.addr = alloca ptr, align 8
  %errp.addr = alloca ptr, align 8
  %value = alloca i32, align 4
  %ok = alloca i8, align 1
  store ptr %v, ptr %v.addr, align 8
  store ptr %name, ptr %name.addr, align 8
  store ptr %obj, ptr %obj.addr, align 8
  store ptr %errp, ptr %errp.addr, align 8
  %0 = load ptr, ptr %obj.addr, align 8
  %1 = load i32, ptr %0, align 4
  store i32 %1, ptr %value, align 4
  %2 = load ptr, ptr %v.addr, align 8
  %3 = load ptr, ptr %name.addr, align 8
  %4 = load ptr, ptr %errp.addr, align 8
  %call = call zeroext i1 @visit_type_enum(ptr noundef %2, ptr noundef %3, ptr noundef %value, ptr noundef @BlockDeviceIoStatus_lookup, ptr noundef %4)
  %frombool = zext i1 %call to i8
  store i8 %frombool, ptr %ok, align 1
  %5 = load i32, ptr %value, align 4
  %6 = load ptr, ptr %obj.addr, align 8
  store i32 %5, ptr %6, align 4
  %7 = load i8, ptr %ok, align 1
  %tobool = trunc i8 %7 to i1
  ret i1 %tobool
}

; Function Attrs: nounwind sspstrong uwtable
define dso_local zeroext i1 @visit_type_q_obj_BlockJobInfo_base_members(ptr noundef %v, ptr noundef %obj, ptr noundef %errp) #0 {
entry:
  %retval = alloca i1, align 1
  %v.addr = alloca ptr, align 8
  %obj.addr = alloca ptr, align 8
  %errp.addr = alloca ptr, align 8
  %has_error = alloca i8, align 1
  store ptr %v, ptr %v.addr, align 8
  store ptr %obj, ptr %obj.addr, align 8
  store ptr %errp, ptr %errp.addr, align 8
  %0 = load ptr, ptr %obj.addr, align 8
  %error = getelementptr inbounds %struct.q_obj_BlockJobInfo_base, ptr %0, i32 0, i32 12
  %1 = load ptr, ptr %error, align 8
  %tobool = icmp ne ptr %1, null
  %lnot = xor i1 %tobool, true
  %lnot1 = xor i1 %lnot, true
  %frombool = zext i1 %lnot1 to i8
  store i8 %frombool, ptr %has_error, align 1
  %2 = load ptr, ptr %v.addr, align 8
  %3 = load ptr, ptr %obj.addr, align 8
  %type = getelementptr inbounds %struct.q_obj_BlockJobInfo_base, ptr %3, i32 0, i32 0
  %4 = load ptr, ptr %errp.addr, align 8
  %call = call zeroext i1 @visit_type_JobType(ptr noundef %2, ptr noundef @.str.32, ptr noundef %type, ptr noundef %4)
  br i1 %call, label %if.end, label %if.then

if.then:                                          ; preds = %entry
  store i1 false, ptr %retval, align 1
  br label %return

if.end:                                           ; preds = %entry
  %5 = load ptr, ptr %v.addr, align 8
  %6 = load ptr, ptr %obj.addr, align 8
  %device = getelementptr inbounds %struct.q_obj_BlockJobInfo_base, ptr %6, i32 0, i32 1
  %7 = load ptr, ptr %errp.addr, align 8
  %call2 = call zeroext i1 @visit_type_str(ptr noundef %5, ptr noundef @.str.103, ptr noundef %device, ptr noundef %7)
  br i1 %call2, label %if.end4, label %if.then3

if.then3:                                         ; preds = %if.end
  store i1 false, ptr %retval, align 1
  br label %return

if.end4:                                          ; preds = %if.end
  %8 = load ptr, ptr %v.addr, align 8
  %9 = load ptr, ptr %obj.addr, align 8
  %len = getelementptr inbounds %struct.q_obj_BlockJobInfo_base, ptr %9, i32 0, i32 2
  %10 = load ptr, ptr %errp.addr, align 8
  %call5 = call zeroext i1 @visit_type_int(ptr noundef %8, ptr noundef @.str.178, ptr noundef %len, ptr noundef %10)
  br i1 %call5, label %if.end7, label %if.then6

if.then6:                                         ; preds = %if.end4
  store i1 false, ptr %retval, align 1
  br label %return

if.end7:                                          ; preds = %if.end4
  %11 = load ptr, ptr %v.addr, align 8
  %12 = load ptr, ptr %obj.addr, align 8
  %offset = getelementptr inbounds %struct.q_obj_BlockJobInfo_base, ptr %12, i32 0, i32 3
  %13 = load ptr, ptr %errp.addr, align 8
  %call8 = call zeroext i1 @visit_type_int(ptr noundef %11, ptr noundef @.str.59, ptr noundef %offset, ptr noundef %13)
  br i1 %call8, label %if.end10, label %if.then9

if.then9:                                         ; preds = %if.end7
  store i1 false, ptr %retval, align 1
  br label %return

if.end10:                                         ; preds = %if.end7
  %14 = load ptr, ptr %v.addr, align 8
  %15 = load ptr, ptr %obj.addr, align 8
  %busy = getelementptr inbounds %struct.q_obj_BlockJobInfo_base, ptr %15, i32 0, i32 4
  %16 = load ptr, ptr %errp.addr, align 8
  %call11 = call zeroext i1 @visit_type_bool(ptr noundef %14, ptr noundef @.str.97, ptr noundef %busy, ptr noundef %16)
  br i1 %call11, label %if.end13, label %if.then12

if.then12:                                        ; preds = %if.end10
  store i1 false, ptr %retval, align 1
  br label %return

if.end13:                                         ; preds = %if.end10
  %17 = load ptr, ptr %v.addr, align 8
  %18 = load ptr, ptr %obj.addr, align 8
  %paused = getelementptr inbounds %struct.q_obj_BlockJobInfo_base, ptr %18, i32 0, i32 5
  %19 = load ptr, ptr %errp.addr, align 8
  %call14 = call zeroext i1 @visit_type_bool(ptr noundef %17, ptr noundef @.str.179, ptr noundef %paused, ptr noundef %19)
  br i1 %call14, label %if.end16, label %if.then15

if.then15:                                        ; preds = %if.end13
  store i1 false, ptr %retval, align 1
  br label %return

if.end16:                                         ; preds = %if.end13
  %20 = load ptr, ptr %v.addr, align 8
  %21 = load ptr, ptr %obj.addr, align 8
  %speed = getelementptr inbounds %struct.q_obj_BlockJobInfo_base, ptr %21, i32 0, i32 6
  %22 = load ptr, ptr %errp.addr, align 8
  %call17 = call zeroext i1 @visit_type_int(ptr noundef %20, ptr noundef @.str.180, ptr noundef %speed, ptr noundef %22)
  br i1 %call17, label %if.end19, label %if.then18

if.then18:                                        ; preds = %if.end16
  store i1 false, ptr %retval, align 1
  br label %return

if.end19:                                         ; preds = %if.end16
  %23 = load ptr, ptr %v.addr, align 8
  %24 = load ptr, ptr %obj.addr, align 8
  %io_status = getelementptr inbounds %struct.q_obj_BlockJobInfo_base, ptr %24, i32 0, i32 7
  %25 = load ptr, ptr %errp.addr, align 8
  %call20 = call zeroext i1 @visit_type_BlockDeviceIoStatus(ptr noundef %23, ptr noundef @.str.109, ptr noundef %io_status, ptr noundef %25)
  br i1 %call20, label %if.end22, label %if.then21

if.then21:                                        ; preds = %if.end19
  store i1 false, ptr %retval, align 1
  br label %return

if.end22:                                         ; preds = %if.end19
  %26 = load ptr, ptr %v.addr, align 8
  %27 = load ptr, ptr %obj.addr, align 8
  %ready = getelementptr inbounds %struct.q_obj_BlockJobInfo_base, ptr %27, i32 0, i32 8
  %28 = load ptr, ptr %errp.addr, align 8
  %call23 = call zeroext i1 @visit_type_bool(ptr noundef %26, ptr noundef @.str.181, ptr noundef %ready, ptr noundef %28)
  br i1 %call23, label %if.end25, label %if.then24

if.then24:                                        ; preds = %if.end22
  store i1 false, ptr %retval, align 1
  br label %return

if.end25:                                         ; preds = %if.end22
  %29 = load ptr, ptr %v.addr, align 8
  %30 = load ptr, ptr %obj.addr, align 8
  %status = getelementptr inbounds %struct.q_obj_BlockJobInfo_base, ptr %30, i32 0, i32 9
  %31 = load ptr, ptr %errp.addr, align 8
  %call26 = call zeroext i1 @visit_type_JobStatus(ptr noundef %29, ptr noundef @.str.182, ptr noundef %status, ptr noundef %31)
  br i1 %call26, label %if.end28, label %if.then27

if.then27:                                        ; preds = %if.end25
  store i1 false, ptr %retval, align 1
  br label %return

if.end28:                                         ; preds = %if.end25
  %32 = load ptr, ptr %v.addr, align 8
  %33 = load ptr, ptr %obj.addr, align 8
  %auto_finalize = getelementptr inbounds %struct.q_obj_BlockJobInfo_base, ptr %33, i32 0, i32 10
  %34 = load ptr, ptr %errp.addr, align 8
  %call29 = call zeroext i1 @visit_type_bool(ptr noundef %32, ptr noundef @.str.183, ptr noundef %auto_finalize, ptr noundef %34)
  br i1 %call29, label %if.end31, label %if.then30

if.then30:                                        ; preds = %if.end28
  store i1 false, ptr %retval, align 1
  br label %return

if.end31:                                         ; preds = %if.end28
  %35 = load ptr, ptr %v.addr, align 8
  %36 = load ptr, ptr %obj.addr, align 8
  %auto_dismiss = getelementptr inbounds %struct.q_obj_BlockJobInfo_base, ptr %36, i32 0, i32 11
  %37 = load ptr, ptr %errp.addr, align 8
  %call32 = call zeroext i1 @visit_type_bool(ptr noundef %35, ptr noundef @.str.184, ptr noundef %auto_dismiss, ptr noundef %37)
  br i1 %call32, label %if.end34, label %if.then33

if.then33:                                        ; preds = %if.end31
  store i1 false, ptr %retval, align 1
  br label %return

if.end34:                                         ; preds = %if.end31
  %38 = load ptr, ptr %v.addr, align 8
  %call35 = call zeroext i1 @visit_optional(ptr noundef %38, ptr noundef @.str.185, ptr noundef %has_error)
  br i1 %call35, label %if.then36, label %if.end41

if.then36:                                        ; preds = %if.end34
  %39 = load ptr, ptr %v.addr, align 8
  %40 = load ptr, ptr %obj.addr, align 8
  %error37 = getelementptr inbounds %struct.q_obj_BlockJobInfo_base, ptr %40, i32 0, i32 12
  %41 = load ptr, ptr %errp.addr, align 8
  %call38 = call zeroext i1 @visit_type_str(ptr noundef %39, ptr noundef @.str.185, ptr noundef %error37, ptr noundef %41)
  br i1 %call38, label %if.end40, label %if.then39

if.then39:                                        ; preds = %if.then36
  store i1 false, ptr %retval, align 1
  br label %return

if.end40:                                         ; preds = %if.then36
  br label %if.end41

if.end41:                                         ; preds = %if.end40, %if.end34
  store i1 true, ptr %retval, align 1
  br label %return

return:                                           ; preds = %if.end41, %if.then39, %if.then33, %if.then30, %if.then27, %if.then24, %if.then21, %if.then18, %if.then15, %if.then12, %if.then9, %if.then6, %if.then3, %if.then
  %42 = load i1, ptr %retval, align 1
  ret i1 %42
}