; Function Attrs: nounwind sspstrong uwtable
define dso_local noundef zeroext i1 @visit_type_q_obj_BlockJobInfo_base_members(ptr noundef %v, ptr noundef %obj, ptr noundef %errp) local_unnamed_addr #0 {
entry:
  %value.i = alloca i32, align 4
  %has_error = alloca i8, align 1
  %error = getelementptr inbounds nuw i8, ptr %obj, i64 64
  %0 = load ptr, ptr %error, align 8
  %tobool = icmp ne ptr %0, null
  %frombool = zext i1 %tobool to i8
  store i8 %frombool, ptr %has_error, align 1
  %call = tail call zeroext i1 @visit_type_JobType(ptr noundef %v, ptr noundef nonnull @.str.32, ptr noundef %obj, ptr noundef %errp) #5
  br i1 %call, label %if.end, label %return

if.end:                                           ; preds = %entry
  %device = getelementptr inbounds nuw i8, ptr %obj, i64 8
  %call2 = tail call zeroext i1 @visit_type_str(ptr noundef %v, ptr noundef nonnull @.str.103, ptr noundef nonnull %device, ptr noundef %errp) #5
  br i1 %call2, label %if.end4, label %return

if.end4:                                          ; preds = %if.end
  %len = getelementptr inbounds nuw i8, ptr %obj, i64 16
  %call5 = tail call zeroext i1 @visit_type_int(ptr noundef %v, ptr noundef nonnull @.str.178, ptr noundef nonnull %len, ptr noundef %errp) #5
  br i1 %call5, label %if.end7, label %return

if.end7:                                          ; preds = %if.end4
  %offset = getelementptr inbounds nuw i8, ptr %obj, i64 24
  %call8 = tail call zeroext i1 @visit_type_int(ptr noundef %v, ptr noundef nonnull @.str.59, ptr noundef nonnull %offset, ptr noundef %errp) #5
  br i1 %call8, label %if.end10, label %return

if.end10:                                         ; preds = %if.end7
  %busy = getelementptr inbounds nuw i8, ptr %obj, i64 32
  %call11 = tail call zeroext i1 @visit_type_bool(ptr noundef %v, ptr noundef nonnull @.str.97, ptr noundef nonnull %busy, ptr noundef %errp) #5
  br i1 %call11, label %if.end13, label %return

if.end13:                                         ; preds = %if.end10
  %paused = getelementptr inbounds nuw i8, ptr %obj, i64 33
  %call14 = tail call zeroext i1 @visit_type_bool(ptr noundef %v, ptr noundef nonnull @.str.179, ptr noundef nonnull %paused, ptr noundef %errp) #5
  br i1 %call14, label %if.end16, label %return

if.end16:                                         ; preds = %if.end13
  %speed = getelementptr inbounds nuw i8, ptr %obj, i64 40
  %call17 = tail call zeroext i1 @visit_type_int(ptr noundef %v, ptr noundef nonnull @.str.180, ptr noundef nonnull %speed, ptr noundef %errp) #5
  br i1 %call17, label %if.end19, label %return

if.end19:                                         ; preds = %if.end16
  %io_status = getelementptr inbounds nuw i8, ptr %obj, i64 48
  call void @llvm.lifetime.start.p0(i64 4, ptr nonnull %value.i)
  %1 = load i32, ptr %io_status, align 4
  store i32 %1, ptr %value.i, align 4
  %call.i = call zeroext i1 @visit_type_enum(ptr noundef %v, ptr noundef nonnull @.str.109, ptr noundef nonnull %value.i, ptr noundef nonnull @BlockDeviceIoStatus_lookup, ptr noundef %errp) #5
  %2 = load i32, ptr %value.i, align 4
  store i32 %2, ptr %io_status, align 4
  call void @llvm.lifetime.end.p0(i64 4, ptr nonnull %value.i)
  br i1 %call.i, label %if.end22, label %return

if.end22:                                         ; preds = %if.end19
  %ready = getelementptr inbounds nuw i8, ptr %obj, i64 52
  %call23 = call zeroext i1 @visit_type_bool(ptr noundef %v, ptr noundef nonnull @.str.181, ptr noundef nonnull %ready, ptr noundef %errp) #5
  br i1 %call23, label %if.end25, label %return

if.end25:                                         ; preds = %if.end22
  %status = getelementptr inbounds nuw i8, ptr %obj, i64 56
  %call26 = call zeroext i1 @visit_type_JobStatus(ptr noundef %v, ptr noundef nonnull @.str.182, ptr noundef nonnull %status, ptr noundef %errp) #5
  br i1 %call26, label %if.end28, label %return

if.end28:                                         ; preds = %if.end25
  %auto_finalize = getelementptr inbounds nuw i8, ptr %obj, i64 60
  %call29 = call zeroext i1 @visit_type_bool(ptr noundef %v, ptr noundef nonnull @.str.183, ptr noundef nonnull %auto_finalize, ptr noundef %errp) #5
  br i1 %call29, label %if.end31, label %return

if.end31:                                         ; preds = %if.end28
  %auto_dismiss = getelementptr inbounds nuw i8, ptr %obj, i64 61
  %call32 = call zeroext i1 @visit_type_bool(ptr noundef %v, ptr noundef nonnull @.str.184, ptr noundef nonnull %auto_dismiss, ptr noundef %errp) #5
  br i1 %call32, label %if.end34, label %return

if.end34:                                         ; preds = %if.end31
  %call35 = call zeroext i1 @visit_optional(ptr noundef %v, ptr noundef nonnull @.str.185, ptr noundef nonnull %has_error) #5
  br i1 %call35, label %if.then36, label %if.end41

if.then36:                                        ; preds = %if.end34
  %call38 = call zeroext i1 @visit_type_str(ptr noundef %v, ptr noundef nonnull @.str.185, ptr noundef nonnull %error, ptr noundef %errp) #5
  br i1 %call38, label %if.end41, label %return

if.end41:                                         ; preds = %if.then36, %if.end34
  br label %return

return:                                           ; preds = %if.then36, %if.end31, %if.end28, %if.end25, %if.end22, %if.end19, %if.end16, %if.end13, %if.end10, %if.end7, %if.end4, %if.end, %entry, %if.end41
  %retval.0 = phi i1 [ true, %if.end41 ], [ false, %entry ], [ false, %if.end ], [ false, %if.end4 ], [ false, %if.end7 ], [ false, %if.end10 ], [ false, %if.end13 ], [ false, %if.end16 ], [ false, %if.end19 ], [ false, %if.end22 ], [ false, %if.end25 ], [ false, %if.end28 ], [ false, %if.end31 ], [ false, %if.then36 ]
  ret i1 %retval.0
}